target datalayout = "e-m:e-p270:32:32-p271:32:32-p272:64:64-i64:64-i128:128-f80:128-n8:16:32:64-S128"
target triple = "x86_64-unknown-linux-gnu"

%struct.EHCIState = type { %struct.USBBus, ptr, ptr, %struct.MemoryRegion, ptr, %struct.MemoryRegion, %struct.MemoryRegion, %struct.MemoryRegion, i32, i8, i16, i16, i16, i16, i32, [16 x i8], %union.anon.5, [6 x i32], ptr, ptr, i8, i32, i32, [6 x %struct.USBPort], [6 x ptr], i32, i32, %union.EHCIQueueHead, %union.EHCIQueueHead, i32, i32, %struct.USBPacket, %struct.QEMUSGList, i64, i32, i32, i8, ptr }
%struct.USBBus = type { %struct.BusState, ptr, i32, i32, i32, %union.anon, %union.anon.0, %union.anon.1 }
%struct.BusState = type { %struct.Object, ptr, ptr, ptr, i32, i8, i8, i32, %union.BusChildHead, %struct.BusStateEntry, %struct.ResettableState }
%struct.Object = type { ptr, ptr, ptr, i32, ptr }
%union.BusChildHead = type { %struct.QTailQLink }
%struct.QTailQLink = type { ptr, ptr }
%struct.BusStateEntry = type { ptr, ptr }
%struct.ResettableState = type { i32, i8, i8 }
%union.anon = type { %struct.QTailQLink }
%union.anon.0 = type { %struct.QTailQLink }
%union.anon.1 = type { %struct.QTailQLink }
%struct.MemoryRegion = type { %struct.Object, i8, i8, i8, i8, i8, i8, i8, i8, i8, i8, ptr, ptr, ptr, ptr, ptr, ptr, i32, i128, i64, ptr, i64, i8, i8, i8, i8, i8, ptr, i64, i32, %union.anon.2, %union.anon.3, %union.anon.4, ptr, i32, ptr, ptr, i8 }
%union.anon.2 = type { %struct.QTailQLink }
%union.anon.3 = type { %struct.QTailQLink }
%union.anon.4 = type { %struct.QTailQLink }
%union.anon.5 = type { [17 x i32] }
%struct.USBPort = type { ptr, i32, i32, [16 x i8], ptr, ptr, i32, %union.anon.6 }
%union.anon.6 = type { %struct.QTailQLink }
%union.EHCIQueueHead = type { %struct.QTailQLink }
%struct.USBPacket = type { i32, i64, ptr, i32, %struct.QEMUIOVector, i64, i8, i8, i32, i32, i32, ptr, %union.anon.10, %union.anon.11 }
%struct.QEMUIOVector = type { ptr, i32, %union.anon.7 }
%union.anon.7 = type { %struct.anon.8 }
%struct.anon.8 = type { i32, %struct.iovec }
%struct.iovec = type { ptr, i64 }
%union.anon.10 = type { %struct.QTailQLink }
%union.anon.11 = type { %struct.QTailQLink }
%struct.QEMUSGList = type { ptr, i32, i32, i64, ptr, ptr }

; Function Attrs: nounwind sspstrong uwtable
define internal i32 @usb_ehci_post_load(ptr noundef %opaque, i32 noundef %version_id) #0 {
entry:
  %opaque.addr = alloca ptr, align 8
  %version_id.addr = alloca i32, align 4
  %s = alloca ptr, align 8
  %i = alloca i32, align 4
  %companion = alloca ptr, align 8
  store ptr %opaque, ptr %opaque.addr, align 8
  store i32 %version_id, ptr %version_id.addr, align 4
  %0 = load ptr, ptr %opaque.addr, align 8
  store ptr %0, ptr %s, align 8
  store i32 0, ptr %i, align 4
  br label %for.cond

for.cond:                                         ; preds = %for.inc, %entry
  %1 = load i32, ptr %i, align 4
  %cmp = icmp slt i32 %1, 6
  br i1 %cmp, label %for.body, label %for.end

for.body:                                         ; preds = %for.cond
  %2 = load ptr, ptr %s, align 8
  %companion_ports = getelementptr inbounds %struct.EHCIState, ptr %2, i32 0, i32 24
  %3 = load i32, ptr %i, align 4
  %idxprom = sext i32 %3 to i64
  %arrayidx = getelementptr [6 x ptr], ptr %companion_ports, i64 0, i64 %idxprom
  %4 = load ptr, ptr %arrayidx, align 8
  store ptr %4, ptr %companion, align 8
  %5 = load ptr, ptr %companion, align 8
  %cmp1 = icmp eq ptr %5, null
  br i1 %cmp1, label %if.then, label %if.end

if.then:                                          ; preds = %for.body
  br label %for.inc

if.end:                                           ; preds = %for.body
  %6 = load ptr, ptr %s, align 8
  %portsc = getelementptr inbounds %struct.EHCIState, ptr %6, i32 0, i32 17
  %7 = load i32, ptr %i, align 4
  %idxprom2 = sext i32 %7 to i64
  %arrayidx3 = getelementptr [6 x i32], ptr %portsc, i64 0, i64 %idxprom2
  %8 = load i32, ptr %arrayidx3, align 4
  %and = and i32 %8, 8192
  %tobool = icmp ne i32 %and, 0
  br i1 %tobool, label %if.then4, label %if.else

if.then4:                                         ; preds = %if.end
  %9 = load ptr, ptr %s, align 8
  %ports = getelementptr inbounds %struct.EHCIState, ptr %9, i32 0, i32 23
  %10 = load i32, ptr %i, align 4
  %idxprom5 = sext i32 %10 to i64
  %arrayidx6 = getelementptr [6 x %struct.USBPort], ptr %ports, i64 0, i64 %idxprom5
  %dev = getelementptr inbounds %struct.USBPort, ptr %arrayidx6, i32 0, i32 0
  %11 = load ptr, ptr %dev, align 8
  %12 = load ptr, ptr %companion, align 8
  %dev7 = getelementptr inbounds %struct.USBPort, ptr %12, i32 0, i32 0
  store ptr %11, ptr %dev7, align 8
  br label %if.end9

if.else:                                          ; preds = %if.end
  %13 = load ptr, ptr %companion, align 8
  %dev8 = getelementptr inbounds %struct.USBPort, ptr %13, i32 0, i32 0
  store ptr null, ptr %dev8, align 8
  br label %if.end9

if.end9:                                          ; preds = %if.else, %if.then4
  br label %for.inc

for.inc:                                          ; preds = %if.end9, %if.then
  %14 = load i32, ptr %i, align 4
  %inc = add i32 %14, 1
  store i32 %inc, ptr %i, align 4
  br label %for.cond, !llvm.loop !9

for.end:                                          ; preds = %for.cond
  ret i32 0
}