; Function Attrs: nofree norecurse nosync nounwind sspstrong memory(write, argmem: readwrite, inaccessiblemem: none) uwtable
define internal noundef i32 @usb_ehci_post_load(ptr noundef readonly captures(none) %opaque, i32 %version_id) #3 {
entry:
  %companion_ports = getelementptr inbounds nuw i8, ptr %opaque, i64 1904
  %portsc = getelementptr inbounds nuw i8, ptr %opaque, i64 1416
  %ports = getelementptr inbounds nuw i8, ptr %opaque, i64 1472
  br label %for.body

for.body:                                         ; preds = %entry, %for.inc
  %indvars.iv = phi i64 [ 0, %entry ], [ %indvars.iv.next, %for.inc ]
  %arrayidx = getelementptr [6 x ptr], ptr %companion_ports, i64 0, i64 %indvars.iv
  %0 = load ptr, ptr %arrayidx, align 8
  %cmp1 = icmp eq ptr %0, null
  br i1 %cmp1, label %for.inc, label %if.end

if.end:                                           ; preds = %for.body
  %arrayidx3 = getelementptr [6 x i32], ptr %portsc, i64 0, i64 %indvars.iv
  %1 = load i32, ptr %arrayidx3, align 4
  %and = and i32 %1, 8192
  %tobool.not = icmp eq i32 %and, 0
  br i1 %tobool.not, label %for.inc.sink.split, label %if.then4

if.then4:                                         ; preds = %if.end
  %arrayidx6 = getelementptr [6 x %struct.USBPort], ptr %ports, i64 0, i64 %indvars.iv
  %2 = load ptr, ptr %arrayidx6, align 8
  br label %for.inc.sink.split

for.inc.sink.split:                               ; preds = %if.end, %if.then4
  %.sink = phi ptr [ %2, %if.then4 ], [ null, %if.end ]
  store ptr %.sink, ptr %0, align 8
  br label %for.inc

for.inc:                                          ; preds = %for.inc.sink.split, %for.body
  %indvars.iv.next = add nuw nsw i64 %indvars.iv, 1
  %exitcond.not = icmp eq i64 %indvars.iv.next, 6
  br i1 %exitcond.not, label %for.end, label %for.body, !llvm.loop !9

for.end:                                          ; preds = %for.inc
  ret i32 0
}